target datalayout = "e-m:e-p270:32:32-p271:32:32-p272:64:64-i64:64-i128:128-f80:128-n8:16:32:64-S128"
target triple = "x86_64-unknown-linux-gnu"

%"class.Assimp::FindInvalidDataProcess" = type <{ %"class.Assimp::BaseProcess", float, i8, [3 x i8] }>
%"class.Assimp::BaseProcess" = type { ptr, ptr, ptr }

@.str = private unnamed_addr constant [21 x i8] c"PP_FID_ANIM_ACCURACY\00", align 1
@.str.1 = private unnamed_addr constant [28 x i8] c"PP_FID_IGNORE_TEXTURECOORDS\00", align 1

; Function Attrs: mustprogress uwtable
define linkonce_odr noundef zeroext i1 @_ZNK6Assimp8Importer15GetPropertyBoolEPKcb(ptr noundef nonnull align 8 dereferenceable(8) %this, ptr noundef %szName, i1 noundef zeroext %bErrorReturn) #3 comdat align 2 {
entry:
  %this.addr = alloca ptr, align 8
  %szName.addr = alloca ptr, align 8
  %bErrorReturn.addr = alloca i8, align 1
  store ptr %this, ptr %this.addr, align 8
  store ptr %szName, ptr %szName.addr, align 8
  %frombool = zext i1 %bErrorReturn to i8
  store i8 %frombool, ptr %bErrorReturn.addr, align 1
  %this1 = load ptr, ptr %this.addr, align 8
  %0 = load ptr, ptr %szName.addr, align 8
  %1 = load i8, ptr %bErrorReturn.addr, align 1
  %tobool = trunc i8 %1 to i1
  %conv = zext i1 %tobool to i32
  %call = call noundef i32 @_ZNK6Assimp8Importer18GetPropertyIntegerEPKci(ptr noundef nonnull align 8 dereferenceable(8) %this1, ptr noundef %0, i32 noundef %conv)
  %cmp = icmp ne i32 %call, 0
  ret i1 %cmp
}

; Function Attrs: mustprogress uwtable
define void @_ZN6Assimp22FindInvalidDataProcess15SetupPropertiesEPKNS_8ImporterE(ptr noundef nonnull align 8 dereferenceable(29) %this, ptr noundef %pImp) unnamed_addr #3 align 2 {
entry:
  %this.addr = alloca ptr, align 8
  %pImp.addr = alloca ptr, align 8
  store ptr %this, ptr %this.addr, align 8
  store ptr %pImp, ptr %pImp.addr, align 8
  %this1 = load ptr, ptr %this.addr, align 8
  %0 = load ptr, ptr %pImp.addr, align 8
  %call = call noundef float @_ZNK6Assimp8Importer16GetPropertyFloatEPKcf(ptr noundef nonnull align 8 dereferenceable(8) %0, ptr noundef @.str, float noundef 0.000000e+00)
  %cmp = fcmp une float 0.000000e+00, %call
  %conv = uitofp i1 %cmp to float
  %configEpsilon = getelementptr inbounds %"class.Assimp::FindInvalidDataProcess", ptr %this1, i32 0, i32 1
  store float %conv, ptr %configEpsilon, align 8
  %1 = load ptr, ptr %pImp.addr, align 8
  %call2 = call noundef zeroext i1 @_ZNK6Assimp8Importer15GetPropertyBoolEPKcb(ptr noundef nonnull align 8 dereferenceable(8) %1, ptr noundef @.str.1, i1 noundef zeroext false)
  %mIgnoreTexCoods = getelementptr inbounds %"class.Assimp::FindInvalidDataProcess", ptr %this1, i32 0, i32 2
  %frombool = zext i1 %call2 to i8
  store i8 %frombool, ptr %mIgnoreTexCoods, align 4
  ret void
}