; Function Attrs: mustprogress uwtable
define void @_ZN6Assimp22FindInvalidDataProcess15SetupPropertiesEPKNS_8ImporterE(ptr nocapture noundef nonnull writeonly align 8 dereferenceable(29) %this, ptr noundef nonnull %pImp) unnamed_addr #3 align 2 {
entry:
  %call = tail call noundef float @_ZNK6Assimp8Importer16GetPropertyFloatEPKcf(ptr noundef nonnull align 8 dereferenceable(8) %pImp, ptr noundef nonnull @.str, float noundef 0.000000e+00)
  %cmp = fcmp une float %call, 0.000000e+00
  %conv = uitofp i1 %cmp to float
  %configEpsilon = getelementptr inbounds i8, ptr %this, i64 24
  store float %conv, ptr %configEpsilon, align 8
  %call.i = tail call noundef i32 @_ZNK6Assimp8Importer18GetPropertyIntegerEPKci(ptr noundef nonnull align 8 dereferenceable(8) %pImp, ptr noundef nonnull @.str.1, i32 noundef 0)
  %cmp.i = icmp ne i32 %call.i, 0
  %mIgnoreTexCoods = getelementptr inbounds i8, ptr %this, i64 28
  %frombool = zext i1 %cmp.i to i8
  store i8 %frombool, ptr %mIgnoreTexCoods, align 4
  ret void
}